; ModuleID = '9/195.c'
source_filename = "9/195.c"
target datalayout = "e-m:e-p270:32:32-p271:32:32-p272:64:64-i64:64-f80:128-n8:16:32:64-S128"
target triple = "x86_64-pc-linux-gnu"

%struct.patient = type { [10 x i8], i32 }

@.str = private unnamed_addr constant [3 x i8] c"%d\00", align 1
@.str.1 = private unnamed_addr constant [6 x i8] c"%s %d\00", align 1
@.str.2 = private unnamed_addr constant [4 x i8] c"%s\0A\00", align 1

; Function Attrs: noinline nounwind uwtable
define dso_local void @main() #0 {
  %1 = alloca [100 x %struct.patient], align 16
  %2 = alloca [100 x %struct.patient], align 16
  %3 = alloca [100 x %struct.patient], align 16
  %4 = alloca %struct.patient, align 4
  %5 = alloca i32, align 4
  %6 = alloca i32, align 4
  %7 = alloca i32, align 4
  %8 = alloca i32, align 4
  %9 = alloca i32, align 4
  %10 = bitcast [100 x %struct.patient]* %1 to i8*
  call void @llvm.memset.p0i8.i64(i8* align 16 %10, i8 0, i64 1600, i1 false)
  %11 = bitcast [100 x %struct.patient]* %2 to i8*
  call void @llvm.memset.p0i8.i64(i8* align 16 %11, i8 0, i64 1600, i1 false)
  %12 = bitcast [100 x %struct.patient]* %3 to i8*
  call void @llvm.memset.p0i8.i64(i8* align 16 %12, i8 0, i64 1600, i1 false)
  store i32 0, i32* %7, align 4
  store i32 0, i32* %8, align 4
  %13 = call i32 (i8*, ...) @__isoc99_scanf(i8* getelementptr inbounds ([3 x i8], [3 x i8]* @.str, i64 0, i64 0), i32* %9)
  store i32 0, i32* %5, align 4
  br label %14

14:                                               ; preds = %29, %0
  %15 = load i32, i32* %5, align 4
  %16 = load i32, i32* %9, align 4
  %17 = icmp slt i32 %15, %16
  br i1 %17, label %18, label %32

18:                                               ; preds = %14
  %19 = load i32, i32* %5, align 4
  %20 = sext i32 %19 to i64
  %21 = getelementptr inbounds [100 x %struct.patient], [100 x %struct.patient]* %1, i64 0, i64 %20
  %22 = getelementptr inbounds %struct.patient, %struct.patient* %21, i32 0, i32 0
  %23 = getelementptr inbounds [10 x i8], [10 x i8]* %22, i64 0, i64 0
  %24 = load i32, i32* %5, align 4
  %25 = sext i32 %24 to i64
  %26 = getelementptr inbounds [100 x %struct.patient], [100 x %struct.patient]* %1, i64 0, i64 %25
  %27 = getelementptr inbounds %struct.patient, %struct.patient* %26, i32 0, i32 1
  %28 = call i32 (i8*, ...) @__isoc99_scanf(i8* getelementptr inbounds ([6 x i8], [6 x i8]* @.str.1, i64 0, i64 0), i8* %23, i32* %27)
  br label %29

29:                                               ; preds = %18
  %30 = load i32, i32* %5, align 4
  %31 = add nsw i32 %30, 1
  store i32 %31, i32* %5, align 4
  br label %14

32:                                               ; preds = %14
  store i32 0, i32* %5, align 4
  br label %33

33:                                               ; preds = %67, %32
  %34 = load i32, i32* %5, align 4
  %35 = load i32, i32* %9, align 4
  %36 = icmp slt i32 %34, %35
  br i1 %36, label %37, label %70

37:                                               ; preds = %33
  %38 = load i32, i32* %5, align 4
  %39 = sext i32 %38 to i64
  %40 = getelementptr inbounds [100 x %struct.patient], [100 x %struct.patient]* %1, i64 0, i64 %39
  %41 = getelementptr inbounds %struct.patient, %struct.patient* %40, i32 0, i32 1
  %42 = load i32, i32* %41, align 4
  %43 = icmp sge i32 %42, 60
  br i1 %43, label %44, label %55

44:                                               ; preds = %37
  %45 = load i32, i32* %7, align 4
  %46 = sext i32 %45 to i64
  %47 = getelementptr inbounds [100 x %struct.patient], [100 x %struct.patient]* %2, i64 0, i64 %46
  %48 = load i32, i32* %5, align 4
  %49 = sext i32 %48 to i64
  %50 = getelementptr inbounds [100 x %struct.patient], [100 x %struct.patient]* %1, i64 0, i64 %49
  %51 = bitcast %struct.patient* %47 to i8*
  %52 = bitcast %struct.patient* %50 to i8*
  call void @llvm.memcpy.p0i8.p0i8.i64(i8* align 16 %51, i8* align 16 %52, i64 16, i1 false)
  %53 = load i32, i32* %7, align 4
  %54 = add nsw i32 %53, 1
  store i32 %54, i32* %7, align 4
  br label %66

55:                                               ; preds = %37
  %56 = load i32, i32* %8, align 4
  %57 = sext i32 %56 to i64
  %58 = getelementptr inbounds [100 x %struct.patient], [100 x %struct.patient]* %3, i64 0, i64 %57
  %59 = load i32, i32* %5, align 4
  %60 = sext i32 %59 to i64
  %61 = getelementptr inbounds [100 x %struct.patient], [100 x %struct.patient]* %1, i64 0, i64 %60
  %62 = bitcast %struct.patient* %58 to i8*
  %63 = bitcast %struct.patient* %61 to i8*
  call void @llvm.memcpy.p0i8.p0i8.i64(i8* align 16 %62, i8* align 16 %63, i64 16, i1 false)
  %64 = load i32, i32* %8, align 4
  %65 = add nsw i32 %64, 1
  store i32 %65, i32* %8, align 4
  br label %66

66:                                               ; preds = %55, %44
  br label %67

67:                                               ; preds = %66
  %68 = load i32, i32* %5, align 4
  %69 = add nsw i32 %68, 1
  store i32 %69, i32* %5, align 4
  br label %33

70:                                               ; preds = %33
  store i32 0, i32* %5, align 4
  br label %71

71:                                               ; preds = %123, %70
  %72 = load i32, i32* %5, align 4
  %73 = load i32, i32* %9, align 4
  %74 = sub nsw i32 %73, 1
  %75 = icmp slt i32 %72, %74
  br i1 %75, label %76, label %126

76:                                               ; preds = %71
  store i32 0, i32* %6, align 4
  br label %77

77:                                               ; preds = %119, %76
  %78 = load i32, i32* %6, align 4
  %79 = load i32, i32* %9, align 4
  %80 = sub nsw i32 %79, 1
  %81 = load i32, i32* %5, align 4
  %82 = sub nsw i32 %80, %81
  %83 = icmp slt i32 %78, %82
  br i1 %83, label %84, label %122

84:                                               ; preds = %77
  %85 = load i32, i32* %6, align 4
  %86 = sext i32 %85 to i64
  %87 = getelementptr inbounds [100 x %struct.patient], [100 x %struct.patient]* %2, i64 0, i64 %86
  %88 = getelementptr inbounds %struct.patient, %struct.patient* %87, i32 0, i32 1
  %89 = load i32, i32* %88, align 4
  %90 = load i32, i32* %6, align 4
  %91 = add nsw i32 %90, 1
  %92 = sext i32 %91 to i64
  %93 = getelementptr inbounds [100 x %struct.patient], [100 x %struct.patient]* %2, i64 0, i64 %92
  %94 = getelementptr inbounds %struct.patient, %struct.patient* %93, i32 0, i32 1
  %95 = load i32, i32* %94, align 4
  %96 = icmp slt i32 %89, %95
  br i1 %96, label %97, label %118

97:                                               ; preds = %84
  %98 = load i32, i32* %6, align 4
  %99 = sext i32 %98 to i64
  %100 = getelementptr inbounds [100 x %struct.patient], [100 x %struct.patient]* %2, i64 0, i64 %99
  %101 = bitcast %struct.patient* %4 to i8*
  %102 = bitcast %struct.patient* %100 to i8*
  call void @llvm.memcpy.p0i8.p0i8.i64(i8* align 4 %101, i8* align 16 %102, i64 16, i1 false)
  %103 = load i32, i32* %6, align 4
  %104 = sext i32 %103 to i64
  %105 = getelementptr inbounds [100 x %struct.patient], [100 x %struct.patient]* %2, i64 0, i64 %104
  %106 = load i32, i32* %6, align 4
  %107 = add nsw i32 %106, 1
  %108 = sext i32 %107 to i64
  %109 = getelementptr inbounds [100 x %struct.patient], [100 x %struct.patient]* %2, i64 0, i64 %108
  %110 = bitcast %struct.patient* %105 to i8*
  %111 = bitcast %struct.patient* %109 to i8*
  call void @llvm.memcpy.p0i8.p0i8.i64(i8* align 16 %110, i8* align 16 %111, i64 16, i1 false)
  %112 = load i32, i32* %6, align 4
  %113 = add nsw i32 %112, 1
  %114 = sext i32 %113 to i64
  %115 = getelementptr inbounds [100 x %struct.patient], [100 x %struct.patient]* %2, i64 0, i64 %114
  %116 = bitcast %struct.patient* %115 to i8*
  %117 = bitcast %struct.patient* %4 to i8*
  call void @llvm.memcpy.p0i8.p0i8.i64(i8* align 16 %116, i8* align 4 %117, i64 16, i1 false)
  br label %118

118:                                              ; preds = %97, %84
  br label %119

119:                                              ; preds = %118
  %120 = load i32, i32* %6, align 4
  %121 = add nsw i32 %120, 1
  store i32 %121, i32* %6, align 4
  br label %77

122:                                              ; preds = %77
  br label %123

123:                                              ; preds = %122
  %124 = load i32, i32* %5, align 4
  %125 = add nsw i32 %124, 1
  store i32 %125, i32* %5, align 4
  br label %71

126:                                              ; preds = %71
  store i32 0, i32* %5, align 4
  br label %127

127:                                              ; preds = %138, %126
  %128 = load i32, i32* %5, align 4
  %129 = load i32, i32* %7, align 4
  %130 = icmp slt i32 %128, %129
  br i1 %130, label %131, label %141

131:                                              ; preds = %127
  %132 = load i32, i32* %5, align 4
  %133 = sext i32 %132 to i64
  %134 = getelementptr inbounds [100 x %struct.patient], [100 x %struct.patient]* %2, i64 0, i64 %133
  %135 = getelementptr inbounds %struct.patient, %struct.patient* %134, i32 0, i32 0
  %136 = getelementptr inbounds [10 x i8], [10 x i8]* %135, i64 0, i64 0
  %137 = call i32 (i8*, ...) @printf(i8* getelementptr inbounds ([4 x i8], [4 x i8]* @.str.2, i64 0, i64 0), i8* %136)
  br label %138

138:                                              ; preds = %131
  %139 = load i32, i32* %5, align 4
  %140 = add nsw i32 %139, 1
  store i32 %140, i32* %5, align 4
  br label %127

141:                                              ; preds = %127
  store i32 0, i32* %5, align 4
  br label %142

142:                                              ; preds = %153, %141
  %143 = load i32, i32* %5, align 4
  %144 = load i32, i32* %8, align 4
  %145 = icmp slt i32 %143, %144
  br i1 %145, label %146, label %156

146:                                              ; preds = %142
  %147 = load i32, i32* %5, align 4
  %148 = sext i32 %147 to i64
  %149 = getelementptr inbounds [100 x %struct.patient], [100 x %struct.patient]* %3, i64 0, i64 %148
  %150 = getelementptr inbounds %struct.patient, %struct.patient* %149, i32 0, i32 0
  %151 = getelementptr inbounds [10 x i8], [10 x i8]* %150, i64 0, i64 0
  %152 = call i32 (i8*, ...) @printf(i8* getelementptr inbounds ([4 x i8], [4 x i8]* @.str.2, i64 0, i64 0), i8* %151)
  br label %153

153:                                              ; preds = %146
  %154 = load i32, i32* %5, align 4
  %155 = add nsw i32 %154, 1
  store i32 %155, i32* %5, align 4
  br label %142

156:                                              ; preds = %142
  ret void
}

; Function Attrs: argmemonly nounwind willreturn
declare void @llvm.memset.p0i8.i64(i8* nocapture writeonly, i8, i64, i1 immarg) #1

declare dso_local i32 @__isoc99_scanf(i8*, ...) #2

; Function Attrs: argmemonly nounwind willreturn
declare void @llvm.memcpy.p0i8.p0i8.i64(i8* noalias nocapture writeonly, i8* noalias nocapture readonly, i64, i1 immarg) #1

declare dso_local i32 @printf(i8*, ...) #2


!llvm.module.flags = !{!0}
!llvm.ident = !{!1}

!0 = !{i32 1, !"wchar_size", i32 4}
!1 = !{!"clang version 10.0.0-4ubuntu1 "}
