; ModuleID = 'source-C-CXX/8/195.c'
source_filename = "source-C-CXX/8/195.c"
target datalayout = "e-m:e-p270:32:32-p271:32:32-p272:64:64-i64:64-f80:128-n8:16:32:64-S128"
target triple = "x86_64-pc-linux-gnu"

%struct.patient = type { [10 x i8], i32 }

@.str = private unnamed_addr constant [3 x i8] c"%d\00", align 1
@.str.1 = private unnamed_addr constant [6 x i8] c"%s %d\00", align 1

; Function Attrs: nofree nounwind sspstrong uwtable
define dso_local void @main() local_unnamed_addr #0 {
  %1 = alloca [100 x %struct.patient], align 16
  %2 = alloca [100 x %struct.patient], align 16
  %3 = alloca [100 x %struct.patient], align 16
  %4 = alloca %struct.patient, align 4
  %5 = alloca i32, align 4
  %6 = getelementptr inbounds [100 x %struct.patient], [100 x %struct.patient]* %1, i64 0, i64 0, i32 0, i64 0
  call void @llvm.lifetime.start.p0i8(i64 1600, i8* nonnull %6) #6
  call void @llvm.memset.p0i8.i64(i8* noundef nonnull align 16 dereferenceable(1600) %6, i8 0, i64 1600, i1 false)
  %7 = getelementptr inbounds [100 x %struct.patient], [100 x %struct.patient]* %2, i64 0, i64 0, i32 0, i64 0
  call void @llvm.lifetime.start.p0i8(i64 1600, i8* nonnull %7) #6
  call void @llvm.memset.p0i8.i64(i8* noundef nonnull align 16 dereferenceable(1600) %7, i8 0, i64 1600, i1 false)
  %8 = getelementptr inbounds [100 x %struct.patient], [100 x %struct.patient]* %3, i64 0, i64 0, i32 0, i64 0
  call void @llvm.lifetime.start.p0i8(i64 1600, i8* nonnull %8) #6
  call void @llvm.memset.p0i8.i64(i8* noundef nonnull align 16 dereferenceable(1600) %8, i8 0, i64 1600, i1 false)
  %9 = getelementptr inbounds %struct.patient, %struct.patient* %4, i64 0, i32 0, i64 0
  call void @llvm.lifetime.start.p0i8(i64 16, i8* nonnull %9)
  %10 = bitcast i32* %5 to i8*
  call void @llvm.lifetime.start.p0i8(i64 4, i8* nonnull %10) #6
  %11 = call i32 (i8*, ...) @__isoc99_scanf(i8* getelementptr inbounds ([3 x i8], [3 x i8]* @.str, i64 0, i64 0), i32* nonnull %5)
  %12 = load i32, i32* %5, align 4, !tbaa !5
  %13 = icmp sgt i32 %12, 0
  br i1 %13, label %18, label %99

14:                                               ; preds = %18
  %15 = icmp sgt i32 %24, 0
  br i1 %15, label %16, label %99

16:                                               ; preds = %14
  %17 = zext i32 %24 to i64
  br label %31

18:                                               ; preds = %0, %18
  %19 = phi i64 [ %23, %18 ], [ 0, %0 ]
  %20 = getelementptr inbounds [100 x %struct.patient], [100 x %struct.patient]* %1, i64 0, i64 %19, i32 0, i64 0
  %21 = getelementptr inbounds [100 x %struct.patient], [100 x %struct.patient]* %1, i64 0, i64 %19, i32 1
  %22 = call i32 (i8*, ...) @__isoc99_scanf(i8* getelementptr inbounds ([6 x i8], [6 x i8]* @.str.1, i64 0, i64 0), i8* nonnull %20, i32* nonnull %21)
  %23 = add nuw nsw i64 %19, 1
  %24 = load i32, i32* %5, align 4, !tbaa !5
  %25 = sext i32 %24 to i64
  %26 = icmp slt i64 %23, %25
  br i1 %26, label %18, label %14, !llvm.loop !9

27:                                               ; preds = %49
  %28 = icmp sgt i32 %24, 1
  br i1 %28, label %29, label %62

29:                                               ; preds = %27
  %30 = add nsw i32 %24, -1
  br label %54

31:                                               ; preds = %16, %49
  %32 = phi i64 [ 0, %16 ], [ %52, %49 ]
  %33 = phi i32 [ 0, %16 ], [ %51, %49 ]
  %34 = phi i32 [ 0, %16 ], [ %50, %49 ]
  %35 = getelementptr inbounds [100 x %struct.patient], [100 x %struct.patient]* %1, i64 0, i64 %32
  %36 = getelementptr inbounds [100 x %struct.patient], [100 x %struct.patient]* %1, i64 0, i64 %32, i32 1
  %37 = load i32, i32* %36, align 4, !tbaa !11
  %38 = icmp sgt i32 %37, 59
  br i1 %38, label %39, label %44

39:                                               ; preds = %31
  %40 = sext i32 %34 to i64
  %41 = getelementptr inbounds [100 x %struct.patient], [100 x %struct.patient]* %2, i64 0, i64 %40, i32 0, i64 0
  %42 = getelementptr %struct.patient, %struct.patient* %35, i64 0, i32 0, i64 0
  call void @llvm.memcpy.p0i8.p0i8.i64(i8* noundef nonnull align 16 dereferenceable(16) %41, i8* noundef nonnull align 16 dereferenceable(16) %42, i64 16, i1 false), !tbaa.struct !13
  %43 = add nsw i32 %34, 1
  br label %49

44:                                               ; preds = %31
  %45 = sext i32 %33 to i64
  %46 = getelementptr inbounds [100 x %struct.patient], [100 x %struct.patient]* %3, i64 0, i64 %45, i32 0, i64 0
  %47 = getelementptr %struct.patient, %struct.patient* %35, i64 0, i32 0, i64 0
  call void @llvm.memcpy.p0i8.p0i8.i64(i8* noundef nonnull align 16 dereferenceable(16) %46, i8* noundef nonnull align 16 dereferenceable(16) %47, i64 16, i1 false), !tbaa.struct !13
  %48 = add nsw i32 %33, 1
  br label %49

49:                                               ; preds = %39, %44
  %50 = phi i32 [ %43, %39 ], [ %34, %44 ]
  %51 = phi i32 [ %33, %39 ], [ %48, %44 ]
  %52 = add nuw nsw i64 %32, 1
  %53 = icmp eq i64 %52, %17
  br i1 %53, label %27, label %31, !llvm.loop !15

54:                                               ; preds = %29, %79
  %55 = phi i32 [ %30, %29 ], [ %81, %79 ]
  %56 = phi i32 [ 0, %29 ], [ %80, %79 ]
  %57 = xor i32 %56, -1
  %58 = add i32 %24, %57
  %59 = icmp sgt i32 %58, 0
  br i1 %59, label %60, label %79

60:                                               ; preds = %54
  %61 = zext i32 %55 to i64
  br label %66

62:                                               ; preds = %79, %27
  %63 = icmp sgt i32 %50, 0
  br i1 %63, label %64, label %83

64:                                               ; preds = %62
  %65 = zext i32 %50 to i64
  br label %87

66:                                               ; preds = %60, %77
  %67 = phi i64 [ 0, %60 ], [ %70, %77 ]
  %68 = getelementptr inbounds [100 x %struct.patient], [100 x %struct.patient]* %2, i64 0, i64 %67, i32 1
  %69 = load i32, i32* %68, align 4, !tbaa !11
  %70 = add nuw nsw i64 %67, 1
  %71 = getelementptr inbounds [100 x %struct.patient], [100 x %struct.patient]* %2, i64 0, i64 %70, i32 1
  %72 = load i32, i32* %71, align 4, !tbaa !11
  %73 = icmp slt i32 %69, %72
  br i1 %73, label %74, label %77

74:                                               ; preds = %66
  %75 = getelementptr inbounds [100 x %struct.patient], [100 x %struct.patient]* %2, i64 0, i64 %67, i32 0, i64 0
  call void @llvm.memcpy.p0i8.p0i8.i64(i8* noundef nonnull align 4 dereferenceable(16) %9, i8* noundef nonnull align 16 dereferenceable(16) %75, i64 16, i1 false), !tbaa.struct !13
  %76 = getelementptr inbounds [100 x %struct.patient], [100 x %struct.patient]* %2, i64 0, i64 %70, i32 0, i64 0
  call void @llvm.memcpy.p0i8.p0i8.i64(i8* noundef nonnull align 16 dereferenceable(16) %75, i8* noundef nonnull align 16 dereferenceable(16) %76, i64 16, i1 false), !tbaa.struct !13
  call void @llvm.memcpy.p0i8.p0i8.i64(i8* noundef nonnull align 16 dereferenceable(16) %76, i8* noundef nonnull align 4 dereferenceable(16) %9, i64 16, i1 false), !tbaa.struct !13
  br label %77

77:                                               ; preds = %66, %74
  %78 = icmp eq i64 %70, %61
  br i1 %78, label %79, label %66, !llvm.loop !16

79:                                               ; preds = %77, %54
  %80 = add nuw nsw i32 %56, 1
  %81 = add i32 %55, -1
  %82 = icmp eq i32 %80, %30
  br i1 %82, label %62, label %54, !llvm.loop !17

83:                                               ; preds = %87, %62
  %84 = icmp sgt i32 %51, 0
  br i1 %84, label %85, label %99

85:                                               ; preds = %83
  %86 = zext i32 %51 to i64
  br label %93

87:                                               ; preds = %64, %87
  %88 = phi i64 [ 0, %64 ], [ %91, %87 ]
  %89 = getelementptr inbounds [100 x %struct.patient], [100 x %struct.patient]* %2, i64 0, i64 %88, i32 0, i64 0
  %90 = call i32 @puts(i8* nonnull %89)
  %91 = add nuw nsw i64 %88, 1
  %92 = icmp eq i64 %91, %65
  br i1 %92, label %83, label %87, !llvm.loop !18

93:                                               ; preds = %85, %93
  %94 = phi i64 [ 0, %85 ], [ %97, %93 ]
  %95 = getelementptr inbounds [100 x %struct.patient], [100 x %struct.patient]* %3, i64 0, i64 %94, i32 0, i64 0
  %96 = call i32 @puts(i8* nonnull %95)
  %97 = add nuw nsw i64 %94, 1
  %98 = icmp eq i64 %97, %86
  br i1 %98, label %99, label %93, !llvm.loop !19

99:                                               ; preds = %93, %0, %14, %83
  call void @llvm.lifetime.end.p0i8(i64 4, i8* nonnull %10) #6
  call void @llvm.lifetime.end.p0i8(i64 16, i8* nonnull %9)
  call void @llvm.lifetime.end.p0i8(i64 1600, i8* nonnull %8) #6
  call void @llvm.lifetime.end.p0i8(i64 1600, i8* nonnull %7) #6
  call void @llvm.lifetime.end.p0i8(i64 1600, i8* nonnull %6) #6
  ret void
}

; Function Attrs: argmemonly mustprogress nofree nosync nounwind willreturn
declare void @llvm.lifetime.start.p0i8(i64 immarg, i8* nocapture) #1

; Function Attrs: argmemonly mustprogress nofree nounwind willreturn writeonly
declare void @llvm.memset.p0i8.i64(i8* nocapture writeonly, i8, i64, i1 immarg) #2

; Function Attrs: nofree nounwind
declare noundef i32 @__isoc99_scanf(i8* nocapture noundef readonly, ...) local_unnamed_addr #3

; Function Attrs: argmemonly mustprogress nofree nounwind willreturn
declare void @llvm.memcpy.p0i8.p0i8.i64(i8* noalias nocapture writeonly, i8* noalias nocapture readonly, i64, i1 immarg) #4

; Function Attrs: argmemonly mustprogress nofree nosync nounwind willreturn
declare void @llvm.lifetime.end.p0i8(i64 immarg, i8* nocapture) #1

; Function Attrs: nofree nounwind
declare noundef i32 @puts(i8* nocapture noundef readonly) local_unnamed_addr #5


!llvm.module.flags = !{!0, !1, !2, !3}
!llvm.ident = !{!4}

!0 = !{i32 1, !"wchar_size", i32 4}
!1 = !{i32 7, !"PIC Level", i32 2}
!2 = !{i32 7, !"PIE Level", i32 2}
!3 = !{i32 7, !"uwtable", i32 1}
!4 = !{!"clang version 13.0.0"}
!5 = !{!6, !6, i64 0}
!6 = !{!"int", !7, i64 0}
!7 = !{!"omnipotent char", !8, i64 0}
!8 = !{!"Simple C/C++ TBAA"}
!9 = distinct !{!9, !10}
!10 = !{!"llvm.loop.mustprogress"}
!11 = !{!12, !6, i64 12}
!12 = !{!"patient", !7, i64 0, !6, i64 12}
!13 = !{i64 0, i64 10, !14, i64 12, i64 4, !5}
!14 = !{!7, !7, i64 0}
!15 = distinct !{!15, !10}
!16 = distinct !{!16, !10}
!17 = distinct !{!17, !10}
!18 = distinct !{!18, !10}
!19 = distinct !{!19, !10}
